; Function Attrs: mustprogress uwtable
define dso_local void @_ZN4Luau7CodeGen3X6418AssemblyBuilderX648placeAvxEPKcNS1_10OperandX64ES5_S5_hhbhh(ptr noundef nonnull align 8 dereferenceable(252) %0, ptr noundef %1, i64 %2, i64 %3, i64 %4, i8 noundef zeroext %5, i8 noundef zeroext %6, i1 noundef zeroext %7, i8 noundef zeroext %8, i8 noundef zeroext %9) local_unnamed_addr #0 align 2 {
  %11 = getelementptr inbounds nuw i8, ptr %0, i64 80
  %12 = load i8, ptr %11, align 8, !tbaa !14, !range !61, !noundef !62
  %13 = trunc nuw i8 %12 to i1
  br i1 %13, label %14, label %15

14:                                               ; preds = %10
  %.sroa.5.0.insert.ext = zext i8 %5 to i64
  %.sroa.5.0.insert.shift = shl nuw nsw i64 %.sroa.5.0.insert.ext, 32
  %.sroa.0.0.insert.insert = or disjoint i64 %.sroa.5.0.insert.shift, 276856834
  tail call void @_ZN4Luau7CodeGen3X6418AssemblyBuilderX643logEPKcNS1_10OperandX64ES5_S5_S5_(ptr noundef nonnull align 8 dereferenceable(252) %0, ptr noundef %1, i64 %2, i64 %3, i64 %4, i64 %.sroa.0.0.insert.insert)
  br label %15

15:                                               ; preds = %14, %10
  %.sroa.17.0.extract.shift.i = lshr i64 %2, 16
  %.sroa.17.0.extract.trunc.i = trunc i64 %.sroa.17.0.extract.shift.i to i8
  %16 = getelementptr inbounds nuw i8, ptr %0, i64 232
  %17 = load ptr, ptr %16, align 8, !tbaa !51
  %18 = getelementptr inbounds nuw i8, ptr %17, i64 1
  store ptr %18, ptr %16, align 8, !tbaa !51
  store i8 -60, ptr %17, align 1, !tbaa !13
  %19 = shl i8 %.sroa.17.0.extract.trunc.i, 1
  %20 = and i8 %19, -128
  %21 = trunc i64 %4 to i32
  %22 = lshr i32 %21, 8
  %23 = and i32 %22, 64
  %24 = lshr i32 %21, 17
  %25 = and i32 %24, 32
  %26 = or disjoint i32 %25, %23
  %27 = trunc nuw nsw i32 %26 to i8
  %28 = or disjoint i8 %20, %27
  %29 = xor i8 %28, -32
  %30 = or i8 %29, %8
  %31 = load ptr, ptr %16, align 8, !tbaa !51
  %32 = getelementptr inbounds nuw i8, ptr %31, i64 1
  store ptr %32, ptr %16, align 8, !tbaa !51
  store i8 %30, ptr %31, align 1, !tbaa !13
  %33 = select i1 %7, i32 128, i32 0
  %34 = trunc i64 %3 to i32
  %35 = lshr i32 %34, 16
  %36 = and i32 %35, 120
  %37 = and i8 %.sroa.17.0.extract.trunc.i, 7
  %38 = icmp eq i8 %37, 6
  %39 = select i1 %38, i32 4, i32 0
  %40 = or disjoint i32 %39, %36
  %41 = or disjoint i32 %40, %33
  %42 = trunc nuw i32 %41 to i8
  %43 = xor i8 %42, 120
  %44 = or i8 %43, %9
  %45 = load ptr, ptr %16, align 8, !tbaa !51
  %46 = getelementptr inbounds nuw i8, ptr %45, i64 1
  store ptr %46, ptr %16, align 8, !tbaa !51
  store i8 %44, ptr %45, align 1, !tbaa !13
  %47 = load ptr, ptr %16, align 8, !tbaa !51
  %48 = getelementptr inbounds nuw i8, ptr %47, i64 1
  store ptr %48, ptr %16, align 8, !tbaa !51
  store i8 %6, ptr %47, align 1, !tbaa !13
  %sum.shift.i = lshr i64 %2, 19
  %49 = trunc i64 %sum.shift.i to i8
  %50 = and i8 %49, 31
  tail call void @_ZN4Luau7CodeGen3X6418AssemblyBuilderX6414placeModRegMemENS1_10OperandX64Ehi(ptr noundef nonnull align 8 dereferenceable(252) %0, i64 %4, i8 noundef zeroext %50, i32 noundef 1)
  %51 = load ptr, ptr %16, align 8, !tbaa !51
  %52 = getelementptr inbounds nuw i8, ptr %51, i64 1
  store ptr %52, ptr %16, align 8, !tbaa !51
  store i8 %5, ptr %51, align 1, !tbaa !13
  %53 = getelementptr inbounds nuw i8, ptr %0, i64 248
  %54 = load i32, ptr %53, align 8, !tbaa !63
  %55 = add i32 %54, 1
  store i32 %55, ptr %53, align 8, !tbaa !63
  %56 = getelementptr inbounds nuw i8, ptr %0, i64 240
  %57 = load ptr, ptr %56, align 8, !tbaa !52
  %58 = load ptr, ptr %16, align 8, !tbaa !51
  %59 = ptrtoint ptr %57 to i64
  %60 = ptrtoint ptr %58 to i64
  %61 = sub i64 %59, %60
  %62 = and i64 %61, 4294967280
  %63 = icmp eq i64 %62, 0
  br i1 %63, label %64, label %_ZN4Luau7CodeGen3X6418AssemblyBuilderX646commitEv.exit

64:                                               ; preds = %15
  tail call void @_ZN4Luau7CodeGen3X6418AssemblyBuilderX646extendEv(ptr noundef nonnull align 8 dereferenceable(252) %0)
  br label %_ZN4Luau7CodeGen3X6418AssemblyBuilderX646commitEv.exit

_ZN4Luau7CodeGen3X6418AssemblyBuilderX646commitEv.exit: ; preds = %15, %64
  ret void
}